; Function Attrs: nounwind sspstrong uwtable
define internal i64 @enumerable_lazy(i64 noundef %0) #0 {
  %2 = load i64, ptr @sym_each, align 8, !tbaa !7
  %3 = tail call i32 @rb_keyword_given_p() #18
  %4 = load i64, ptr @rb_cLazy, align 8, !tbaa !7
  %5 = tail call i64 @rb_data_typed_object_zalloc(i64 noundef %4, i64 noundef 96, ptr noundef nonnull @enumerator_data_type) #18
  %6 = inttoptr i64 %5 to ptr
  %7 = getelementptr inbounds nuw i8, ptr %6, i64 24
  %8 = load i64, ptr %7, align 8, !tbaa !11
  %9 = and i64 %8, 2
  %.not.i.i.i = icmp eq i64 %9, 0
  %10 = getelementptr i8, ptr %6, i64 32
  br i1 %.not.i.i.i, label %11, label %lazy_to_enum_i.exit

11:                                               ; preds = %1
  %12 = load ptr, ptr %10, align 8, !tbaa !16
  br label %lazy_to_enum_i.exit

lazy_to_enum_i.exit:                              ; preds = %1, %11
  %13 = phi ptr [ %12, %11 ], [ %10, %1 ]
  store i64 36, ptr %13, align 8, !tbaa !17
  %14 = tail call fastcc i64 @enumerator_init(i64 noundef %5, i64 noundef %0, i64 noundef %2, i32 noundef 0, ptr noundef null, ptr noundef nonnull @lazyenum_size, i64 noundef 4, i32 noundef %3)
  %15 = load i64, ptr @id_method, align 8, !tbaa !7
  %16 = tail call i64 @rb_ivar_set(i64 noundef %5, i64 noundef %15, i64 noundef 0) #18
  ret i64 %5
}